target datalayout = "e-m:e-p270:32:32-p271:32:32-p272:64:64-i64:64-i128:128-f80:128-n8:16:32:64-S128"
target triple = "x86_64-pc-linux-gnu"

@.str.34 = private unnamed_addr constant [5 x i8] c"None\00", align 1
@.str.35 = private unnamed_addr constant [7 x i8] c"Cancel\00", align 1
@.str.37 = private unnamed_addr constant [8 x i8] c"Requeue\00", align 1
@.str.38 = private unnamed_addr constant [4 x i8] c"yes\00", align 1
@.str.39 = private unnamed_addr constant [3 x i8] c"no\00", align 1
@.str.255 = private unnamed_addr constant [8 x i8] c"Suspend\00", align 1
@.str.256 = private unnamed_addr constant [7 x i8] c"Resume\00", align 1

; Function Attrs: nounwind uwtable
define internal void @_set_active_combo_job(ptr noundef %0, ptr noundef %1, ptr noundef %2, i32 noundef %3) #0 {
  %5 = alloca ptr, align 8
  %6 = alloca ptr, align 8
  %7 = alloca ptr, align 8
  %8 = alloca i32, align 4
  %9 = alloca ptr, align 8
  %10 = alloca i32, align 4
  store ptr %0, ptr %5, align 8
  store ptr %1, ptr %6, align 8
  store ptr %2, ptr %7, align 8
  store i32 %3, ptr %8, align 4
  call void @llvm.lifetime.start.p0(i64 8, ptr %9) #11
  store ptr null, ptr %9, align 8
  call void @llvm.lifetime.start.p0(i64 4, ptr %10) #11
  store i32 0, ptr %10, align 4
  %11 = load ptr, ptr %6, align 8
  %12 = icmp ne ptr %11, null
  br i1 %12, label %13, label %17

13:                                               ; preds = %4
  %14 = load ptr, ptr %6, align 8
  %15 = load ptr, ptr %7, align 8
  %16 = load i32, ptr %8, align 4
  call void (ptr, ptr, ...) @gtk_tree_model_get(ptr noundef %14, ptr noundef %15, i32 noundef %16, ptr noundef %9, i32 noundef -1)
  br label %17

17:                                               ; preds = %13, %4
  %18 = load ptr, ptr %9, align 8
  %19 = icmp ne ptr %18, null
  br i1 %19, label %21, label %20

20:                                               ; preds = %17
  br label %70

21:                                               ; preds = %17
  %22 = load i32, ptr %8, align 4
  switch i32 %22, label %67 [
    i32 2, label %23
    i32 15, label %54
    i32 63, label %54
    i32 64, label %54
    i32 56, label %54
  ]

23:                                               ; preds = %21
  %24 = load ptr, ptr %9, align 8
  %25 = call i32 @xstrcasecmp(ptr noundef %24, ptr noundef @.str.34)
  %26 = icmp ne i32 %25, 0
  br i1 %26, label %28, label %27

27:                                               ; preds = %23
  store i32 0, ptr %10, align 4
  br label %53

28:                                               ; preds = %23
  %29 = load ptr, ptr %9, align 8
  %30 = call i32 @xstrcasecmp(ptr noundef %29, ptr noundef @.str.35)
  %31 = icmp ne i32 %30, 0
  br i1 %31, label %33, label %32

32:                                               ; preds = %28
  store i32 1, ptr %10, align 4
  br label %52

33:                                               ; preds = %28
  %34 = load ptr, ptr %9, align 8
  %35 = call i32 @xstrcasecmp(ptr noundef %34, ptr noundef @.str.255)
  %36 = icmp ne i32 %35, 0
  br i1 %36, label %38, label %37

37:                                               ; preds = %33
  store i32 2, ptr %10, align 4
  br label %51

38:                                               ; preds = %33
  %39 = load ptr, ptr %9, align 8
  %40 = call i32 @xstrcasecmp(ptr noundef %39, ptr noundef @.str.256)
  %41 = icmp ne i32 %40, 0
  br i1 %41, label %43, label %42

42:                                               ; preds = %38
  store i32 3, ptr %10, align 4
  br label %50

43:                                               ; preds = %38
  %44 = load ptr, ptr %9, align 8
  %45 = call i32 @xstrcasecmp(ptr noundef %44, ptr noundef @.str.37)
  %46 = icmp ne i32 %45, 0
  br i1 %46, label %48, label %47

47:                                               ; preds = %43
  store i32 5, ptr %10, align 4
  br label %49

48:                                               ; preds = %43
  store i32 0, ptr %10, align 4
  br label %49

49:                                               ; preds = %48, %47
  br label %50

50:                                               ; preds = %49, %42
  br label %51

51:                                               ; preds = %50, %37
  br label %52

52:                                               ; preds = %51, %32
  br label %53

53:                                               ; preds = %52, %27
  br label %68

54:                                               ; preds = %21, %21, %21, %21
  %55 = load ptr, ptr %9, align 8
  %56 = call i32 @xstrcasecmp(ptr noundef %55, ptr noundef @.str.38)
  %57 = icmp ne i32 %56, 0
  br i1 %57, label %59, label %58

58:                                               ; preds = %54
  store i32 0, ptr %10, align 4
  br label %66

59:                                               ; preds = %54
  %60 = load ptr, ptr %9, align 8
  %61 = call i32 @xstrcasecmp(ptr noundef %60, ptr noundef @.str.39)
  %62 = icmp ne i32 %61, 0
  br i1 %62, label %64, label %63

63:                                               ; preds = %59
  store i32 1, ptr %10, align 4
  br label %65

64:                                               ; preds = %59
  store i32 0, ptr %10, align 4
  br label %65

65:                                               ; preds = %64, %63
  br label %66

66:                                               ; preds = %65, %58
  br label %68

67:                                               ; preds = %21
  br label %68

68:                                               ; preds = %67, %66, %53
  %69 = load ptr, ptr %9, align 8
  call void @g_free(ptr noundef %69)
  br label %70

70:                                               ; preds = %68, %20
  %71 = load ptr, ptr %5, align 8
  %72 = load i32, ptr %10, align 4
  call void @gtk_combo_box_set_active(ptr noundef %71, i32 noundef %72)
  call void @llvm.lifetime.end.p0(i64 4, ptr %10) #11
  call void @llvm.lifetime.end.p0(i64 8, ptr %9) #11
  ret void
}