; Function Attrs: nounwind uwtable
define internal void @_set_active_combo_job(ptr noundef %0, ptr noundef %1, ptr noundef %2, i32 noundef %3) #0 {
  %5 = alloca ptr, align 8
  call void @llvm.lifetime.start.p0(i64 8, ptr nonnull %5) #16
  store ptr null, ptr %5, align 8
  %.not = icmp eq ptr %1, null
  br i1 %.not, label %.thread, label %6

6:                                                ; preds = %4
  call void (ptr, ptr, ...) @gtk_tree_model_get(ptr noundef nonnull %1, ptr noundef %2, i32 noundef %3, ptr noundef nonnull %5, i32 noundef -1) #16
  %.pr = load ptr, ptr %5, align 8
  %.not8 = icmp eq ptr %.pr, null
  br i1 %.not8, label %.thread, label %7

7:                                                ; preds = %6
  switch i32 %3, label %27 [
    i32 2, label %8
    i32 15, label %22
    i32 63, label %22
    i32 64, label %22
    i32 56, label %22
  ]

8:                                                ; preds = %7
  %9 = call i32 @xstrcasecmp(ptr noundef nonnull %.pr, ptr noundef nonnull @.str.34) #16
  %.not11 = icmp eq i32 %9, 0
  br i1 %.not11, label %27, label %10

10:                                               ; preds = %8
  %11 = load ptr, ptr %5, align 8
  %12 = call i32 @xstrcasecmp(ptr noundef %11, ptr noundef nonnull @.str.35) #16
  %.not12 = icmp eq i32 %12, 0
  br i1 %.not12, label %27, label %13

13:                                               ; preds = %10
  %14 = load ptr, ptr %5, align 8
  %15 = call i32 @xstrcasecmp(ptr noundef %14, ptr noundef nonnull @.str.255) #16
  %.not13 = icmp eq i32 %15, 0
  br i1 %.not13, label %27, label %16

16:                                               ; preds = %13
  %17 = load ptr, ptr %5, align 8
  %18 = call i32 @xstrcasecmp(ptr noundef %17, ptr noundef nonnull @.str.256) #16
  %.not14 = icmp eq i32 %18, 0
  br i1 %.not14, label %27, label %19

19:                                               ; preds = %16
  %20 = load ptr, ptr %5, align 8
  %21 = call i32 @xstrcasecmp(ptr noundef %20, ptr noundef nonnull @.str.37) #16
  %.not15 = icmp eq i32 %21, 0
  %. = select i1 %.not15, i32 5, i32 0
  br label %27

22:                                               ; preds = %7, %7, %7, %7
  %23 = call i32 @xstrcasecmp(ptr noundef nonnull %.pr, ptr noundef nonnull @.str.38) #16
  %.not9 = icmp eq i32 %23, 0
  br i1 %.not9, label %27, label %24

24:                                               ; preds = %22
  %25 = load ptr, ptr %5, align 8
  %26 = call i32 @xstrcasecmp(ptr noundef %25, ptr noundef nonnull @.str.39) #16
  %.not10 = icmp eq i32 %26, 0
  %.16 = zext i1 %.not10 to i32
  br label %27

27:                                               ; preds = %24, %22, %19, %16, %13, %10, %8, %7
  %.1 = phi i32 [ 0, %7 ], [ 0, %8 ], [ 1, %10 ], [ 2, %13 ], [ 3, %16 ], [ %., %19 ], [ 0, %22 ], [ %.16, %24 ]
  %28 = load ptr, ptr %5, align 8
  call void @g_free(ptr noundef %28) #16
  br label %.thread

.thread:                                          ; preds = %4, %6, %27
  %.0 = phi i32 [ %.1, %27 ], [ 0, %6 ], [ 0, %4 ]
  call void @gtk_combo_box_set_active(ptr noundef %0, i32 noundef %.0) #16
  call void @llvm.lifetime.end.p0(i64 8, ptr nonnull %5) #16
  ret void
}